; Function Attrs: nounwind uwtable
define internal range(i32 0, 15) i32 @thread_tcache_flush_ctl(ptr noundef %0, ptr readnone captures(none) %1, i64 %2, ptr noundef readnone captures(address_is_null) %3, ptr noundef readnone captures(address_is_null) %4, ptr noundef readnone captures(address_is_null) %5, i64 noundef %6) #0 {
  %8 = load i8, ptr %0, align 1, !tbaa !146, !range !48, !noundef !49
  %9 = trunc nuw i8 %8 to i1
  br i1 %9, label %10, label %16

10:                                               ; preds = %7
  %11 = icmp ne ptr %3, null
  %12 = icmp ne ptr %4, null
  %or.cond = or i1 %11, %12
  %13 = icmp ne ptr %5, null
  %or.cond3 = or i1 %or.cond, %13
  %14 = icmp ne i64 %6, 0
  %or.cond5 = or i1 %or.cond3, %14
  br i1 %or.cond5, label %16, label %15

15:                                               ; preds = %10
  tail call void @je_tcache_flush(ptr noundef nonnull %0) #15
  br label %16

16:                                               ; preds = %10, %7, %15
  %.0 = phi i32 [ 0, %15 ], [ 14, %7 ], [ 1, %10 ]
  ret i32 %.0
}